target datalayout = "e-m:e-p270:32:32-p271:32:32-p272:64:64-i64:64-i128:128-f80:128-n8:16:32:64-S128"
target triple = "x86_64-pc-linux-gnu"

%struct.Msat_Solver_t_ = type { i32, i32, ptr, ptr, double, double, ptr, ptr, double, double, ptr, ptr, ptr, i32, i32, ptr, ptr, ptr, ptr, ptr, ptr, i32, double, i32, double, ptr, ptr, ptr, ptr, i32, ptr, ptr, ptr, ptr, %struct.Msat_SolverStats_t_, i32, i32, i32, i32, i32, i32 }
%struct.Msat_SolverStats_t_ = type { i64, i64, i64, i64, i64, i64 }

; Function Attrs: nounwind uwtable
define void @Msat_SolverRemoveMarked(ptr noundef %0) #0 {
  %2 = alloca ptr, align 8
  %3 = alloca ptr, align 8
  %4 = alloca ptr, align 8
  %5 = alloca i32, align 4
  %6 = alloca i32, align 4
  %7 = alloca i32, align 4
  store ptr %0, ptr %2, align 8, !tbaa !3
  call void @llvm.lifetime.start.p0(i64 8, ptr %3) #4
  call void @llvm.lifetime.start.p0(i64 8, ptr %4) #4
  call void @llvm.lifetime.start.p0(i64 4, ptr %5) #4
  call void @llvm.lifetime.start.p0(i64 4, ptr %6) #4
  call void @llvm.lifetime.start.p0(i64 4, ptr %7) #4
  %8 = load ptr, ptr %2, align 8, !tbaa !3
  %9 = getelementptr inbounds nuw %struct.Msat_Solver_t_, ptr %8, i32 0, i32 2
  %10 = load ptr, ptr %9, align 8, !tbaa !49
  %11 = call i32 @Msat_ClauseVecReadSize(ptr noundef %10)
  store i32 %11, ptr %6, align 4, !tbaa !8
  %12 = load ptr, ptr %2, align 8, !tbaa !3
  %13 = getelementptr inbounds nuw %struct.Msat_Solver_t_, ptr %12, i32 0, i32 2
  %14 = load ptr, ptr %13, align 8, !tbaa !49
  %15 = call ptr @Msat_ClauseVecReadArray(ptr noundef %14)
  store ptr %15, ptr %4, align 8, !tbaa !42
  %16 = load ptr, ptr %2, align 8, !tbaa !3
  %17 = getelementptr inbounds nuw %struct.Msat_Solver_t_, ptr %16, i32 0, i32 1
  %18 = load i32, ptr %17, align 4, !tbaa !56
  store i32 %18, ptr %7, align 4, !tbaa !8
  br label %19

19:                                               ; preds = %30, %1
  %20 = load i32, ptr %7, align 4, !tbaa !8
  %21 = load i32, ptr %6, align 4, !tbaa !8
  %22 = icmp slt i32 %20, %21
  br i1 %22, label %23, label %33

23:                                               ; preds = %19
  %24 = load ptr, ptr %2, align 8, !tbaa !3
  %25 = load ptr, ptr %4, align 8, !tbaa !42
  %26 = load i32, ptr %7, align 4, !tbaa !8
  %27 = sext i32 %26 to i64
  %28 = getelementptr inbounds ptr, ptr %25, i64 %27
  %29 = load ptr, ptr %28, align 8, !tbaa !27
  call void @Msat_ClauseFree(ptr noundef %24, ptr noundef %29, i32 noundef 1)
  br label %30

30:                                               ; preds = %23
  %31 = load i32, ptr %7, align 4, !tbaa !8
  %32 = add nsw i32 %31, 1
  store i32 %32, ptr %7, align 4, !tbaa !8
  br label %19, !llvm.loop !57

33:                                               ; preds = %19
  %34 = load ptr, ptr %2, align 8, !tbaa !3
  %35 = getelementptr inbounds nuw %struct.Msat_Solver_t_, ptr %34, i32 0, i32 2
  %36 = load ptr, ptr %35, align 8, !tbaa !49
  %37 = load ptr, ptr %2, align 8, !tbaa !3
  %38 = getelementptr inbounds nuw %struct.Msat_Solver_t_, ptr %37, i32 0, i32 1
  %39 = load i32, ptr %38, align 4, !tbaa !56
  call void @Msat_ClauseVecShrink(ptr noundef %36, i32 noundef %39)
  %40 = load ptr, ptr %2, align 8, !tbaa !3
  %41 = getelementptr inbounds nuw %struct.Msat_Solver_t_, ptr %40, i32 0, i32 3
  %42 = load ptr, ptr %41, align 8, !tbaa !48
  %43 = call i32 @Msat_ClauseVecReadSize(ptr noundef %42)
  store i32 %43, ptr %5, align 4, !tbaa !8
  %44 = load ptr, ptr %2, align 8, !tbaa !3
  %45 = getelementptr inbounds nuw %struct.Msat_Solver_t_, ptr %44, i32 0, i32 3
  %46 = load ptr, ptr %45, align 8, !tbaa !48
  %47 = call ptr @Msat_ClauseVecReadArray(ptr noundef %46)
  store ptr %47, ptr %3, align 8, !tbaa !42
  store i32 0, ptr %7, align 4, !tbaa !8
  br label %48

48:                                               ; preds = %59, %33
  %49 = load i32, ptr %7, align 4, !tbaa !8
  %50 = load i32, ptr %5, align 4, !tbaa !8
  %51 = icmp slt i32 %49, %50
  br i1 %51, label %52, label %62

52:                                               ; preds = %48
  %53 = load ptr, ptr %2, align 8, !tbaa !3
  %54 = load ptr, ptr %3, align 8, !tbaa !42
  %55 = load i32, ptr %7, align 4, !tbaa !8
  %56 = sext i32 %55 to i64
  %57 = getelementptr inbounds ptr, ptr %54, i64 %56
  %58 = load ptr, ptr %57, align 8, !tbaa !27
  call void @Msat_ClauseFree(ptr noundef %53, ptr noundef %58, i32 noundef 1)
  br label %59

59:                                               ; preds = %52
  %60 = load i32, ptr %7, align 4, !tbaa !8
  %61 = add nsw i32 %60, 1
  store i32 %61, ptr %7, align 4, !tbaa !8
  br label %48, !llvm.loop !58

62:                                               ; preds = %48
  %63 = load ptr, ptr %2, align 8, !tbaa !3
  %64 = getelementptr inbounds nuw %struct.Msat_Solver_t_, ptr %63, i32 0, i32 3
  %65 = load ptr, ptr %64, align 8, !tbaa !48
  call void @Msat_ClauseVecShrink(ptr noundef %65, i32 noundef 0)
  %66 = load ptr, ptr %2, align 8, !tbaa !3
  %67 = getelementptr inbounds nuw %struct.Msat_Solver_t_, ptr %66, i32 0, i32 2
  %68 = load ptr, ptr %67, align 8, !tbaa !49
  %69 = call i32 @Msat_ClauseVecReadSize(ptr noundef %68)
  %70 = load ptr, ptr %2, align 8, !tbaa !3
  %71 = getelementptr inbounds nuw %struct.Msat_Solver_t_, ptr %70, i32 0, i32 0
  store i32 %69, ptr %71, align 8, !tbaa !52
  call void @llvm.lifetime.end.p0(i64 4, ptr %7) #4
  call void @llvm.lifetime.end.p0(i64 4, ptr %6) #4
  call void @llvm.lifetime.end.p0(i64 4, ptr %5) #4
  call void @llvm.lifetime.end.p0(i64 8, ptr %4) #4
  call void @llvm.lifetime.end.p0(i64 8, ptr %3) #4
  ret void
}