; Function Attrs: nounwind uwtable
define void @Msat_SolverRemoveMarked(ptr noundef %0) local_unnamed_addr #0 {
  %2 = getelementptr inbounds nuw i8, ptr %0, i64 8
  %3 = load ptr, ptr %2, align 8, !tbaa !48
  %4 = tail call i32 @Msat_ClauseVecReadSize(ptr noundef %3) #7
  %5 = load ptr, ptr %2, align 8, !tbaa !48
  %6 = tail call ptr @Msat_ClauseVecReadArray(ptr noundef %5) #7
  %7 = getelementptr inbounds nuw i8, ptr %0, i64 4
  %8 = load i32, ptr %7, align 4, !tbaa !50
  %9 = icmp slt i32 %8, %4
  br i1 %9, label %.lr.ph.preheader, label %._crit_edge

.lr.ph.preheader:                                 ; preds = %1
  %10 = sext i32 %8 to i64
  br label %.lr.ph

.lr.ph:                                           ; preds = %.lr.ph.preheader, %.lr.ph
  %indvars.iv = phi i64 [ %10, %.lr.ph.preheader ], [ %indvars.iv.next, %.lr.ph ]
  %11 = getelementptr inbounds ptr, ptr %6, i64 %indvars.iv
  %12 = load ptr, ptr %11, align 8, !tbaa !29
  tail call void @Msat_ClauseFree(ptr noundef %0, ptr noundef %12, i32 noundef 1) #7
  %indvars.iv.next = add nsw i64 %indvars.iv, 1
  %lftr.wideiv = trunc i64 %indvars.iv.next to i32
  %exitcond.not = icmp eq i32 %4, %lftr.wideiv
  br i1 %exitcond.not, label %._crit_edge.loopexit, label %.lr.ph, !llvm.loop !51

._crit_edge.loopexit:                             ; preds = %.lr.ph
  %.pre = load i32, ptr %7, align 4, !tbaa !50
  br label %._crit_edge

._crit_edge:                                      ; preds = %._crit_edge.loopexit, %1
  %13 = phi i32 [ %.pre, %._crit_edge.loopexit ], [ %8, %1 ]
  %14 = load ptr, ptr %2, align 8, !tbaa !48
  tail call void @Msat_ClauseVecShrink(ptr noundef %14, i32 noundef %13) #7
  %15 = getelementptr inbounds nuw i8, ptr %0, i64 16
  %16 = load ptr, ptr %15, align 8, !tbaa !46
  %17 = tail call i32 @Msat_ClauseVecReadSize(ptr noundef %16) #7
  %18 = load ptr, ptr %15, align 8, !tbaa !46
  %19 = tail call ptr @Msat_ClauseVecReadArray(ptr noundef %18) #7
  %20 = icmp sgt i32 %17, 0
  br i1 %20, label %.lr.ph24.preheader, label %._crit_edge25

.lr.ph24.preheader:                               ; preds = %._crit_edge
  %wide.trip.count = zext nneg i32 %17 to i64
  br label %.lr.ph24

.lr.ph24:                                         ; preds = %.lr.ph24.preheader, %.lr.ph24
  %indvars.iv27 = phi i64 [ 0, %.lr.ph24.preheader ], [ %indvars.iv.next28, %.lr.ph24 ]
  %21 = getelementptr inbounds nuw ptr, ptr %19, i64 %indvars.iv27
  %22 = load ptr, ptr %21, align 8, !tbaa !29
  tail call void @Msat_ClauseFree(ptr noundef %0, ptr noundef %22, i32 noundef 1) #7
  %indvars.iv.next28 = add nuw nsw i64 %indvars.iv27, 1
  %exitcond30.not = icmp eq i64 %indvars.iv.next28, %wide.trip.count
  br i1 %exitcond30.not, label %._crit_edge25, label %.lr.ph24, !llvm.loop !52

._crit_edge25:                                    ; preds = %.lr.ph24, %._crit_edge
  %23 = load ptr, ptr %15, align 8, !tbaa !46
  tail call void @Msat_ClauseVecShrink(ptr noundef %23, i32 noundef 0) #7
  %24 = load ptr, ptr %2, align 8, !tbaa !48
  %25 = tail call i32 @Msat_ClauseVecReadSize(ptr noundef %24) #7
  store i32 %25, ptr %0, align 8, !tbaa !45
  ret void
}